; ModuleID = 'source-C-CXX/42/1599.c'
source_filename = "source-C-CXX/42/1599.c"
target datalayout = "e-m:e-p270:32:32-p271:32:32-p272:64:64-i64:64-f80:128-n8:16:32:64-S128"
target triple = "x86_64-pc-linux-gnu"

@.str = private unnamed_addr constant [3 x i8] c"%d\00", align 1
@.str.1 = private unnamed_addr constant [7 x i8] c"%d %d\0A\00", align 1

; Function Attrs: nofree nounwind sspstrong uwtable
define dso_local void @main() local_unnamed_addr #0 {
  %1 = alloca i32, align 4
  %2 = bitcast i32* %1 to i8*
  call void @llvm.lifetime.start.p0i8(i64 4, i8* nonnull %2) #4
  %3 = call i32 (i8*, ...) @__isoc99_scanf(i8* getelementptr inbounds ([3 x i8], [3 x i8]* @.str, i64 0, i64 0), i32* nonnull %1)
  %4 = load i32, i32* %1, align 4, !tbaa !5
  %5 = icmp slt i32 %4, 6
  br i1 %5, label %52, label %6

6:                                                ; preds = %0, %47
  %7 = phi i32 [ %48, %47 ], [ 3, %0 ]
  %8 = sitofp i32 %7 to double
  %9 = call double @sqrt(double %8) #4
  %10 = fptosi double %9 to i32
  %11 = icmp slt i32 %10, 2
  br i1 %11, label %24, label %12

12:                                               ; preds = %6
  %13 = and i32 %7, 1
  %14 = icmp eq i32 %13, 0
  br i1 %14, label %47, label %15

15:                                               ; preds = %12, %19
  %16 = phi i32 [ %17, %19 ], [ 2, %12 ]
  %17 = add nuw i32 %16, 1
  %18 = icmp eq i32 %16, %10
  br i1 %18, label %22, label %19, !llvm.loop !9

19:                                               ; preds = %15
  %20 = srem i32 %7, %17
  %21 = icmp eq i32 %20, 0
  br i1 %21, label %22, label %15, !llvm.loop !9

22:                                               ; preds = %19, %15
  %23 = icmp slt i32 %16, %10
  br i1 %23, label %47, label %24

24:                                               ; preds = %6, %22
  %25 = load i32, i32* %1, align 4, !tbaa !5
  %26 = sub nsw i32 %25, %7
  %27 = sitofp i32 %26 to double
  %28 = call double @sqrt(double %27) #4
  %29 = fptosi double %28 to i32
  %30 = icmp slt i32 %29, 2
  br i1 %30, label %43, label %31

31:                                               ; preds = %24
  %32 = and i32 %26, 1
  %33 = icmp eq i32 %32, 0
  br i1 %33, label %47, label %34

34:                                               ; preds = %31, %38
  %35 = phi i32 [ %36, %38 ], [ 2, %31 ]
  %36 = add nuw i32 %35, 1
  %37 = icmp eq i32 %35, %29
  br i1 %37, label %41, label %38, !llvm.loop !9

38:                                               ; preds = %34
  %39 = srem i32 %26, %36
  %40 = icmp eq i32 %39, 0
  br i1 %40, label %41, label %34, !llvm.loop !9

41:                                               ; preds = %38, %34
  %42 = icmp slt i32 %35, %29
  br i1 %42, label %47, label %43

43:                                               ; preds = %24, %41
  %44 = load i32, i32* %1, align 4, !tbaa !5
  %45 = sub nsw i32 %44, %7
  %46 = call i32 (i8*, ...) @printf(i8* nonnull dereferenceable(1) getelementptr inbounds ([7 x i8], [7 x i8]* @.str.1, i64 0, i64 0), i32 %7, i32 %45)
  br label %47

47:                                               ; preds = %12, %31, %22, %41, %43
  %48 = add nuw nsw i32 %7, 1
  %49 = load i32, i32* %1, align 4, !tbaa !5
  %50 = sdiv i32 %49, 2
  %51 = icmp slt i32 %7, %50
  br i1 %51, label %6, label %52, !llvm.loop !11

52:                                               ; preds = %47, %0
  call void @llvm.lifetime.end.p0i8(i64 4, i8* nonnull %2) #4
  ret void
}

; Function Attrs: argmemonly mustprogress nofree nosync nounwind willreturn
declare void @llvm.lifetime.start.p0i8(i64 immarg, i8* nocapture) #1

; Function Attrs: nofree nounwind
declare noundef i32 @__isoc99_scanf(i8* nocapture noundef readonly, ...) local_unnamed_addr #2

; Function Attrs: nofree nounwind sspstrong uwtable
define dso_local i32 @prime(i32 %0) local_unnamed_addr #0 {
  %2 = sitofp i32 %0 to double
  %3 = tail call double @sqrt(double %2) #4
  %4 = fptosi double %3 to i32
  %5 = icmp slt i32 %4, 2
  br i1 %5, label %19, label %6

6:                                                ; preds = %1
  %7 = and i32 %0, 1
  %8 = icmp eq i32 %7, 0
  br i1 %8, label %19, label %9

9:                                                ; preds = %6, %13
  %10 = phi i32 [ %11, %13 ], [ 2, %6 ]
  %11 = add nuw i32 %10, 1
  %12 = icmp eq i32 %10, %4
  br i1 %12, label %16, label %13, !llvm.loop !9

13:                                               ; preds = %9
  %14 = srem i32 %0, %11
  %15 = icmp eq i32 %14, 0
  br i1 %15, label %16, label %9, !llvm.loop !9

16:                                               ; preds = %9, %13
  %17 = icmp sge i32 %10, %4
  %18 = zext i1 %17 to i32
  br label %19

19:                                               ; preds = %16, %6, %1
  %20 = phi i32 [ 1, %1 ], [ 0, %6 ], [ %18, %16 ]
  ret i32 %20
}

; Function Attrs: nofree nounwind
declare noundef i32 @printf(i8* nocapture noundef readonly, ...) local_unnamed_addr #2

; Function Attrs: argmemonly mustprogress nofree nosync nounwind willreturn
declare void @llvm.lifetime.end.p0i8(i64 immarg, i8* nocapture) #1

; Function Attrs: mustprogress nofree nounwind willreturn
declare double @sqrt(double) local_unnamed_addr #3


!llvm.module.flags = !{!0, !1, !2, !3}
!llvm.ident = !{!4}

!0 = !{i32 1, !"wchar_size", i32 4}
!1 = !{i32 7, !"PIC Level", i32 2}
!2 = !{i32 7, !"PIE Level", i32 2}
!3 = !{i32 7, !"uwtable", i32 1}
!4 = !{!"clang version 13.0.0"}
!5 = !{!6, !6, i64 0}
!6 = !{!"int", !7, i64 0}
!7 = !{!"omnipotent char", !8, i64 0}
!8 = !{!"Simple C/C++ TBAA"}
!9 = distinct !{!9, !10}
!10 = !{!"llvm.loop.mustprogress"}
!11 = distinct !{!11, !10}
